(lp0
S'Kilimanjaro Coffee'
p1
aS'Lazio'
p2
aS'Babelon Cafe'
p3
aS'Demijohn'
p4
aS'Club India restaurant'
p5
aS'Filament Coffee'
p6
aS'Dough'
p7
aS'Biddy Mulligans'
p8
aS'Whighams Wine Cellars'
p9
aS'The Atrium'
p10
aS'Six Degrees North'
p11
aS'Real Rajput Indian Cuisine'
p12
aS'Le Passepartout'
p13
aS'Greggs'
p14
aS'The Advocate'
p15
aS'Kanpai'
p16
aS'Patisserie Maxime'
p17
aS'Contini Cannonball'
p18
aS'Sheraton Grand Hotel & Spa'
p19
aS'Bella Italia'
p20
aS'Miros Cantina Mexicana'
p21
aS'Wannaburger'
p22
aS"Laila's"
p23
aS'Oishii'
p24
aS'Mercure Point Hotel Edinburgh Traverse @ Mercure Point Hotel'
p25
aS"St Giles' Cathedral Cafe"
p26
aS'Wok & Wine'
p27
aS'La Baguette'
p28
aS"O'Briens Irish Sandwich Bar"
p29
aS'Tigerlily'
p30
aS'El Bar'
p31
aS'Metro Bar & Brasserie'
p32
aS'Caffe Nero'
p33
aS'Burger King'
p34
aS'Ivory Lounge'
p35
aS'Wolfits'
p36
aS'Zest'
p37
aS'Hendersons'
p38
aS'Empires'
p39
aS'Kyloe Restaurant & Grill'
p40
aS'Lovage'
p41
aS'Ti Amo'
p42
aS'Amarone'
p43
aS'Caf Jacques'
p44
aS'Izzi Restaurant'
p45
aS'Iggs & Barioja Restaurant'
p46
aS'The Mussel and Steak Bar'
p47
aS'Black Medicine'
p48
aS'Villager'
p49
aS'Greggs'
p50
aS'The Spice Pavilion'
p51
aS'Forest Cafe'
p52
aS'Thyme'
p53
aS'Pasha'
p54
aS'Gusto'
p55
aS'Peacock Alley'
p56
aS'Coffee Etc'
p57
aS'Wildest Drams'
p58
aS'Parliament House Hotel'
p59
aS'Palmyra'
p60
aS'Jam House'
p61
aS'La Barantine Victoria'
p62
aS'Global'
p63
aS'Caffe Nero'
p64
aS"Jamie's Italian - Edinburgh"
p65
aS'Costa Coffee'
p66
aS'Fleur de Sel'
p67
aS'Lian Pu'
p68
aS'Quattrozero'
p69
aS'Henry J Beans'
p70
aS'Biblos'
p71
aS"Tang's Japanese Restaurant"
p72
aS'The Grain Store'
p73
aS'Wagamama'
p74
aS'Galvin Brasserie de Luxe'
p75
aS'Le Monde'
p76
aS'Monboddo'
p77
aS'Maison de Moggy'
p78
aS'Sligh House'
p79
aS'The Living Room'
p80
aS'G&V Royal Mile Hotel'
p81
aS'Pizza Paradise'
p82
aS'Stac Polly Bistro'
p83
aS'Thyme'
p84
aS'Howies'
p85
aS'Footlights Bar & Grill'
p86
aS'Yum Yum'
p87
aS'Upper Crust'
p88
aS'Tempo Tea Bar'
p89
aS'Amicus Apple'
p90
aS"Greyfriars Bobby's Bar"
p91
aS'Hula Juice Cafe'
p92
aS'Viva Mexico'
p93
aS'Boteco Do Brasil Edinburgh'
p94
aS'Prezzo'
p95
aS'Bread Street Brasserie'
p96
aS'Papavero'
p97
aS'Chimichanga'
p98
aS'99 Hanover Street'
p99
aS'FYUL'
p100
a.